; Function Attrs: nounwind uwtable
define ptr @l___private_Lean_Meta_Tactic_Grind_PP_0__Lean_Meta_Grind_Goal_ppENodeDecl___lambda__3___boxed(ptr noundef %0, ptr noundef %1, ptr noundef %2, ptr noundef %3, ptr noundef %4, ptr noundef %5, ptr noundef %6, ptr noundef %7, ptr noundef %8, ptr noundef %9, ptr noundef %10) local_unnamed_addr #0 {
  %12 = getelementptr inbounds nuw i8, ptr %3, i64 114
  %13 = load i8, ptr %12, align 1, !tbaa !14
  %14 = icmp eq i8 %13, 0
  br i1 %14, label %l___private_Lean_Meta_Tactic_Grind_PP_0__Lean_Meta_Grind_Goal_ppENodeDecl___lambda__3.exit, label %15

15:                                               ; preds = %11
  %16 = load ptr, ptr @l___private_Lean_Meta_Tactic_Grind_PP_0__Lean_Meta_Grind_Goal_ppENodeDecl___lambda__3___closed__3, align 8, !tbaa !10
  tail call void @lean_inc_heartbeat() #4
  %17 = tail call noalias ptr @mi_malloc_small(i64 noundef 24) #4
  %18 = icmp eq ptr %17, null
  br i1 %18, label %19, label %lean_alloc_ctor.exit.i

19:                                               ; preds = %15
  tail call void @lean_internal_panic_out_of_memory() #5
  unreachable

lean_alloc_ctor.exit.i:                           ; preds = %15
  %20 = getelementptr inbounds nuw i8, ptr %17, i64 4
  store i32 1, ptr %17, align 4, !tbaa !4
  store i32 117571608, ptr %20, align 4
  %21 = getelementptr inbounds nuw i8, ptr %17, i64 8
  store ptr %4, ptr %21, align 8, !tbaa !10
  %22 = getelementptr inbounds nuw i8, ptr %17, i64 16
  store ptr %16, ptr %22, align 8, !tbaa !10
  br label %l___private_Lean_Meta_Tactic_Grind_PP_0__Lean_Meta_Grind_Goal_ppENodeDecl___lambda__3.exit

l___private_Lean_Meta_Tactic_Grind_PP_0__Lean_Meta_Grind_Goal_ppENodeDecl___lambda__3.exit: ; preds = %11, %lean_alloc_ctor.exit.i
  %.sink.i = phi ptr [ %17, %lean_alloc_ctor.exit.i ], [ %4, %11 ]
  %23 = tail call ptr @l___private_Lean_Meta_Tactic_Grind_PP_0__Lean_Meta_Grind_Goal_ppENodeDecl___lambda__2(ptr noundef %0, ptr noundef %1, ptr noundef %2, ptr noundef %.sink.i, ptr nonnull poison, ptr noundef %6, ptr noundef %7, ptr noundef %8, ptr noundef %9, ptr noundef %10)
  %24 = ptrtoint ptr %5 to i64
  %25 = and i64 %24, 1
  %.not = icmp eq i64 %25, 0
  br i1 %.not, label %26, label %lean_dec.exit16

26:                                               ; preds = %l___private_Lean_Meta_Tactic_Grind_PP_0__Lean_Meta_Grind_Goal_ppENodeDecl___lambda__3.exit
  %27 = load i32, ptr %5, align 4, !tbaa !4
  %28 = icmp sgt i32 %27, 1
  br i1 %28, label %29, label %31, !prof !9

29:                                               ; preds = %26
  %30 = add nsw i32 %27, -1
  store i32 %30, ptr %5, align 4, !tbaa !4
  br label %lean_dec.exit16

31:                                               ; preds = %26
  %.not.i = icmp eq i32 %27, 0
  br i1 %.not.i, label %lean_dec.exit16, label %32

32:                                               ; preds = %31
  tail call void @lean_dec_ref_cold(ptr noundef nonnull %5) #4
  br label %lean_dec.exit16

lean_dec.exit16:                                  ; preds = %32, %31, %29, %l___private_Lean_Meta_Tactic_Grind_PP_0__Lean_Meta_Grind_Goal_ppENodeDecl___lambda__3.exit
  %33 = ptrtoint ptr %3 to i64
  %34 = and i64 %33, 1
  %.not21 = icmp eq i64 %34, 0
  br i1 %.not21, label %35, label %lean_dec.exit15

35:                                               ; preds = %lean_dec.exit16
  %36 = load i32, ptr %3, align 4, !tbaa !4
  %37 = icmp sgt i32 %36, 1
  br i1 %37, label %38, label %40, !prof !9

38:                                               ; preds = %35
  %39 = add nsw i32 %36, -1
  store i32 %39, ptr %3, align 4, !tbaa !4
  br label %lean_dec.exit15

40:                                               ; preds = %35
  %.not.i17 = icmp eq i32 %36, 0
  br i1 %.not.i17, label %lean_dec.exit15, label %41

41:                                               ; preds = %40
  tail call void @lean_dec_ref_cold(ptr noundef nonnull %3) #4
  br label %lean_dec.exit15

lean_dec.exit15:                                  ; preds = %41, %40, %38, %lean_dec.exit16
  %42 = ptrtoint ptr %1 to i64
  %43 = and i64 %42, 1
  %.not22 = icmp eq i64 %43, 0
  br i1 %.not22, label %44, label %lean_dec.exit

44:                                               ; preds = %lean_dec.exit15
  %45 = load i32, ptr %1, align 4, !tbaa !4
  %46 = icmp sgt i32 %45, 1
  br i1 %46, label %47, label %49, !prof !9

47:                                               ; preds = %44
  %48 = add nsw i32 %45, -1
  store i32 %48, ptr %1, align 4, !tbaa !4
  br label %lean_dec.exit

49:                                               ; preds = %44
  %.not.i19 = icmp eq i32 %45, 0
  br i1 %.not.i19, label %lean_dec.exit, label %50

50:                                               ; preds = %49
  tail call void @lean_dec_ref_cold(ptr noundef nonnull %1) #4
  br label %lean_dec.exit

lean_dec.exit:                                    ; preds = %50, %49, %47, %lean_dec.exit15
  ret ptr %23
}